target datalayout = "e-m:e-p270:32:32-p271:32:32-p272:64:64-i64:64-i128:128-f80:128-n8:16:32:64-S128"
target triple = "x86_64-pc-linux-gnu"

%struct.DirectoryMethodData = type { %struct.WalWriteMethod, ptr }
%struct.WalWriteMethod = type { ptr, i32, i32, i8, ptr, i32 }

; Function Attrs: nounwind uwtable
define internal zeroext i1 @dir_finish(ptr noundef %0) #0 {
  %2 = alloca i1, align 1
  %3 = alloca ptr, align 8
  %4 = alloca ptr, align 8
  %5 = alloca i32, align 4
  store ptr %0, ptr %3, align 8
  %6 = load ptr, ptr %3, align 8
  %7 = getelementptr inbounds nuw %struct.WalWriteMethod, ptr %6, i32 0, i32 4
  store ptr null, ptr %7, align 8
  %8 = load ptr, ptr %3, align 8
  %9 = getelementptr inbounds nuw %struct.WalWriteMethod, ptr %8, i32 0, i32 5
  store i32 0, ptr %9, align 8
  %10 = load ptr, ptr %3, align 8
  %11 = getelementptr inbounds nuw %struct.WalWriteMethod, ptr %10, i32 0, i32 3
  %12 = load i8, ptr %11, align 8, !range !4, !noundef !5
  %13 = trunc i8 %12 to i1
  br i1 %13, label %14, label %30

14:                                               ; preds = %1
  call void @llvm.lifetime.start.p0(i64 8, ptr %4) #9
  %15 = load ptr, ptr %3, align 8
  store ptr %15, ptr %4, align 8
  %16 = load ptr, ptr %4, align 8
  %17 = getelementptr inbounds nuw %struct.DirectoryMethodData, ptr %16, i32 0, i32 1
  %18 = load ptr, ptr %17, align 8
  %19 = call i32 @fsync_fname(ptr noundef %18, i1 noundef zeroext true)
  %20 = icmp ne i32 %19, 0
  br i1 %20, label %21, label %26

21:                                               ; preds = %14
  %22 = call ptr @__errno_location() #11
  %23 = load i32, ptr %22, align 4
  %24 = load ptr, ptr %3, align 8
  %25 = getelementptr inbounds nuw %struct.WalWriteMethod, ptr %24, i32 0, i32 5
  store i32 %23, ptr %25, align 8
  store i1 false, ptr %2, align 1
  store i32 1, ptr %5, align 4
  br label %27

26:                                               ; preds = %14
  store i32 0, ptr %5, align 4
  br label %27

27:                                               ; preds = %26, %21
  call void @llvm.lifetime.end.p0(i64 8, ptr %4) #9
  %28 = load i32, ptr %5, align 4
  switch i32 %28, label %33 [
    i32 0, label %29
    i32 1, label %31
  ]

29:                                               ; preds = %27
  br label %30

30:                                               ; preds = %29, %1
  store i1 true, ptr %2, align 1
  br label %31

31:                                               ; preds = %30, %27
  %32 = load i1, ptr %2, align 1
  ret i1 %32

33:                                               ; preds = %27
  unreachable
}