; Function Attrs: nounwind uwtable
define internal noundef zeroext i1 @dir_finish(ptr noundef captures(none) initializes((24, 36)) %0) #0 {
  %2 = getelementptr inbounds nuw i8, ptr %0, i64 24
  store ptr null, ptr %2, align 8
  %3 = getelementptr inbounds nuw i8, ptr %0, i64 32
  store i32 0, ptr %3, align 8
  %4 = getelementptr inbounds nuw i8, ptr %0, i64 16
  %5 = load i8, ptr %4, align 8, !range !4, !noundef !5
  %6 = trunc nuw i8 %5 to i1
  br i1 %6, label %7, label %.thread

7:                                                ; preds = %1
  %8 = getelementptr inbounds nuw i8, ptr %0, i64 40
  %9 = load ptr, ptr %8, align 8
  %10 = tail call i32 @fsync_fname(ptr noundef %9, i1 noundef zeroext true) #12
  %.not.not = icmp eq i32 %10, 0
  br i1 %.not.not, label %.thread, label %11

11:                                               ; preds = %7
  %12 = tail call ptr @__errno_location() #14
  %13 = load i32, ptr %12, align 4
  store i32 %13, ptr %3, align 8
  br label %.thread

.thread:                                          ; preds = %7, %1, %11
  %.1 = phi i1 [ false, %11 ], [ true, %1 ], [ true, %7 ]
  ret i1 %.1
}